target datalayout = "e-m:e-p270:32:32-p271:32:32-p272:64:64-i64:64-i128:128-f80:128-n8:16:32:64-S128"
target triple = "x86_64-pc-linux-gnu"

%struct._generic_SUNNonlinearSolver = type { ptr, ptr, ptr }
%struct._generic_SUNNonlinearSolver_Ops = type { ptr, ptr, ptr, ptr, ptr, ptr, ptr, ptr, ptr, ptr, ptr, ptr, ptr }
%struct.CVodeMemRec = type { ptr, double, ptr, ptr, i32, i32, double, double, ptr, i32, i32, ptr, ptr, i32, [13 x ptr], ptr, ptr, ptr, ptr, ptr, ptr, ptr, ptr, ptr, i32, i32, double, i32, i32, i32, i32, i32, double, double, double, double, double, double, double, double, [14 x double], [6 x double], [13 x double], double, double, double, double, double, double, double, i32, double, i32, i64, i32, i32, i32, double, double, double, double, double, double, double, double, double, double, double, double, i64, i32, i64, i64, i64, i64, i64, i64, i64, i32, double, double, double, i64, i64, i64, i64, ptr, i32, ptr, i32, ptr, ptr, ptr, ptr, ptr, i64, double, i32, i64, double, double, double, i32, double, i32, i32, i32, i32, i32, ptr, i64, i32, [6 x [4 x double]], i32, i64, ptr, i32, ptr, ptr, double, double, double, ptr, ptr, ptr, double, double, i32, i32, i64, ptr, i32, ptr, i32, i32, [13 x double], [13 x double], [13 x ptr], i32 }

@__func__.CVodeSetNonlinearSolver = private unnamed_addr constant [24 x i8] c"CVodeSetNonlinearSolver\00", align 1
@.str = private unnamed_addr constant [117 x i8] c"generated/home/dtcxzyw/WorkSpace/Projects/compilers/llvm-opt-benchmark/bench/sundials/sundials/src/cvode/cvode_nls.c\00", align 1
@.str.1 = private unnamed_addr constant [26 x i8] c"cvode_mem = NULL illegal.\00", align 1
@.str.2 = private unnamed_addr constant [21 x i8] c"NLS must be non-NULL\00", align 1
@.str.3 = private unnamed_addr constant [41 x i8] c"NLS does not support required operations\00", align 1
@.str.4 = private unnamed_addr constant [30 x i8] c"Invalid nonlinear solver type\00", align 1
@.str.5 = private unnamed_addr constant [41 x i8] c"Setting nonlinear system function failed\00", align 1
@.str.6 = private unnamed_addr constant [41 x i8] c"Setting convergence test function failed\00", align 1
@.str.7 = private unnamed_addr constant [54 x i8] c"Setting maximum number of nonlinear iterations failed\00", align 1
@.str.8 = private unnamed_addr constant [29 x i8] c"The ODE RHS function is NULL\00", align 1

; Function Attrs: nounwind uwtable
define i32 @CVodeSetNonlinearSolver(ptr noundef %0, ptr noundef %1) #0 {
  %3 = alloca i32, align 4
  %4 = alloca ptr, align 8
  %5 = alloca ptr, align 8
  %6 = alloca ptr, align 8
  %7 = alloca i32, align 4
  %8 = alloca i32, align 4
  store ptr %0, ptr %4, align 8, !tbaa !3
  store ptr %1, ptr %5, align 8, !tbaa !7
  call void @llvm.lifetime.start.p0(i64 8, ptr %6) #3
  call void @llvm.lifetime.start.p0(i64 4, ptr %7) #3
  %9 = load ptr, ptr %4, align 8, !tbaa !3
  %10 = icmp eq ptr %9, null
  br i1 %10, label %11, label %12

11:                                               ; preds = %2
  call void (ptr, i32, i32, ptr, ptr, ptr, ...) @cvProcessError(ptr noundef null, i32 noundef -21, i32 noundef 55, ptr noundef @__func__.CVodeSetNonlinearSolver, ptr noundef @.str, ptr noundef @.str.1)
  store i32 -21, ptr %3, align 4
  store i32 1, ptr %8, align 4
  br label %120

12:                                               ; preds = %2
  %13 = load ptr, ptr %4, align 8, !tbaa !3
  store ptr %13, ptr %6, align 8, !tbaa !9
  %14 = load ptr, ptr %5, align 8, !tbaa !7
  %15 = icmp eq ptr %14, null
  br i1 %15, label %16, label %17

16:                                               ; preds = %12
  call void (ptr, i32, i32, ptr, ptr, ptr, ...) @cvProcessError(ptr noundef null, i32 noundef -22, i32 noundef 63, ptr noundef @__func__.CVodeSetNonlinearSolver, ptr noundef @.str, ptr noundef @.str.2)
  store i32 -22, ptr %3, align 4
  store i32 1, ptr %8, align 4
  br label %120

17:                                               ; preds = %12
  %18 = load ptr, ptr %5, align 8, !tbaa !7
  %19 = getelementptr inbounds nuw %struct._generic_SUNNonlinearSolver, ptr %18, i32 0, i32 1
  %20 = load ptr, ptr %19, align 8, !tbaa !11
  %21 = getelementptr inbounds nuw %struct._generic_SUNNonlinearSolver_Ops, ptr %20, i32 0, i32 0
  %22 = load ptr, ptr %21, align 8, !tbaa !15
  %23 = icmp eq ptr %22, null
  br i1 %23, label %38, label %24

24:                                               ; preds = %17
  %25 = load ptr, ptr %5, align 8, !tbaa !7
  %26 = getelementptr inbounds nuw %struct._generic_SUNNonlinearSolver, ptr %25, i32 0, i32 1
  %27 = load ptr, ptr %26, align 8, !tbaa !11
  %28 = getelementptr inbounds nuw %struct._generic_SUNNonlinearSolver_Ops, ptr %27, i32 0, i32 3
  %29 = load ptr, ptr %28, align 8, !tbaa !17
  %30 = icmp eq ptr %29, null
  br i1 %30, label %38, label %31

31:                                               ; preds = %24
  %32 = load ptr, ptr %5, align 8, !tbaa !7
  %33 = getelementptr inbounds nuw %struct._generic_SUNNonlinearSolver, ptr %32, i32 0, i32 1
  %34 = load ptr, ptr %33, align 8, !tbaa !11
  %35 = getelementptr inbounds nuw %struct._generic_SUNNonlinearSolver_Ops, ptr %34, i32 0, i32 5
  %36 = load ptr, ptr %35, align 8, !tbaa !18
  %37 = icmp eq ptr %36, null
  br i1 %37, label %38, label %40

38:                                               ; preds = %31, %24, %17
  %39 = load ptr, ptr %6, align 8, !tbaa !9
  call void (ptr, i32, i32, ptr, ptr, ptr, ...) @cvProcessError(ptr noundef %39, i32 noundef -22, i32 noundef 72, ptr noundef @__func__.CVodeSetNonlinearSolver, ptr noundef @.str, ptr noundef @.str.3)
  store i32 -22, ptr %3, align 4
  store i32 1, ptr %8, align 4
  br label %120

40:                                               ; preds = %31
  %41 = load ptr, ptr %6, align 8, !tbaa !9
  %42 = getelementptr inbounds nuw %struct.CVodeMemRec, ptr %41, i32 0, i32 86
  %43 = load ptr, ptr %42, align 8, !tbaa !19
  %44 = icmp ne ptr %43, null
  br i1 %44, label %45, label %55

45:                                               ; preds = %40
  %46 = load ptr, ptr %6, align 8, !tbaa !9
  %47 = getelementptr inbounds nuw %struct.CVodeMemRec, ptr %46, i32 0, i32 87
  %48 = load i32, ptr %47, align 8, !tbaa !28
  %49 = icmp ne i32 %48, 0
  br i1 %49, label %50, label %55

50:                                               ; preds = %45
  %51 = load ptr, ptr %6, align 8, !tbaa !9
  %52 = getelementptr inbounds nuw %struct.CVodeMemRec, ptr %51, i32 0, i32 86
  %53 = load ptr, ptr %52, align 8, !tbaa !19
  %54 = call i32 @SUNNonlinSolFree(ptr noundef %53)
  store i32 %54, ptr %7, align 4, !tbaa !29
  br label %55

55:                                               ; preds = %50, %45, %40
  %56 = load ptr, ptr %5, align 8, !tbaa !7
  %57 = load ptr, ptr %6, align 8, !tbaa !9
  %58 = getelementptr inbounds nuw %struct.CVodeMemRec, ptr %57, i32 0, i32 86
  store ptr %56, ptr %58, align 8, !tbaa !19
  %59 = load ptr, ptr %6, align 8, !tbaa !9
  %60 = getelementptr inbounds nuw %struct.CVodeMemRec, ptr %59, i32 0, i32 87
  store i32 0, ptr %60, align 8, !tbaa !28
  %61 = load ptr, ptr %5, align 8, !tbaa !7
  %62 = call i32 @SUNNonlinSolGetType(ptr noundef %61)
  %63 = icmp eq i32 %62, 0
  br i1 %63, label %64, label %69

64:                                               ; preds = %55
  %65 = load ptr, ptr %6, align 8, !tbaa !9
  %66 = getelementptr inbounds nuw %struct.CVodeMemRec, ptr %65, i32 0, i32 86
  %67 = load ptr, ptr %66, align 8, !tbaa !19
  %68 = call i32 @SUNNonlinSolSetSysFn(ptr noundef %67, ptr noundef @cvNlsResidual)
  store i32 %68, ptr %7, align 4, !tbaa !29
  br label %81

69:                                               ; preds = %55
  %70 = load ptr, ptr %5, align 8, !tbaa !7
  %71 = call i32 @SUNNonlinSolGetType(ptr noundef %70)
  %72 = icmp eq i32 %71, 1
  br i1 %72, label %73, label %78

73:                                               ; preds = %69
  %74 = load ptr, ptr %6, align 8, !tbaa !9
  %75 = getelementptr inbounds nuw %struct.CVodeMemRec, ptr %74, i32 0, i32 86
  %76 = load ptr, ptr %75, align 8, !tbaa !19
  %77 = call i32 @SUNNonlinSolSetSysFn(ptr noundef %76, ptr noundef @cvNlsFPFunction)
  store i32 %77, ptr %7, align 4, !tbaa !29
  br label %80

78:                                               ; preds = %69
  %79 = load ptr, ptr %6, align 8, !tbaa !9
  call void (ptr, i32, i32, ptr, ptr, ptr, ...) @cvProcessError(ptr noundef %79, i32 noundef -22, i32 noundef 101, ptr noundef @__func__.CVodeSetNonlinearSolver, ptr noundef @.str, ptr noundef @.str.4)
  store i32 -22, ptr %3, align 4
  store i32 1, ptr %8, align 4
  br label %120

80:                                               ; preds = %73
  br label %81

81:                                               ; preds = %80, %64
  %82 = load i32, ptr %7, align 4, !tbaa !29
  %83 = icmp ne i32 %82, 0
  br i1 %83, label %84, label %86

84:                                               ; preds = %81
  %85 = load ptr, ptr %6, align 8, !tbaa !9
  call void (ptr, i32, i32, ptr, ptr, ptr, ...) @cvProcessError(ptr noundef %85, i32 noundef -22, i32 noundef 108, ptr noundef @__func__.CVodeSetNonlinearSolver, ptr noundef @.str, ptr noundef @.str.5)
  store i32 -22, ptr %3, align 4
  store i32 1, ptr %8, align 4
  br label %120

86:                                               ; preds = %81
  %87 = load ptr, ptr %6, align 8, !tbaa !9
  %88 = getelementptr inbounds nuw %struct.CVodeMemRec, ptr %87, i32 0, i32 86
  %89 = load ptr, ptr %88, align 8, !tbaa !19
  %90 = load ptr, ptr %4, align 8, !tbaa !3
  %91 = call i32 @SUNNonlinSolSetConvTestFn(ptr noundef %89, ptr noundef @cvNlsConvTest, ptr noundef %90)
  store i32 %91, ptr %7, align 4, !tbaa !29
  %92 = load i32, ptr %7, align 4, !tbaa !29
  %93 = icmp ne i32 %92, 0
  br i1 %93, label %94, label %96

94:                                               ; preds = %86
  %95 = load ptr, ptr %6, align 8, !tbaa !9
  call void (ptr, i32, i32, ptr, ptr, ptr, ...) @cvProcessError(ptr noundef %95, i32 noundef -22, i32 noundef 117, ptr noundef @__func__.CVodeSetNonlinearSolver, ptr noundef @.str, ptr noundef @.str.6)
  store i32 -22, ptr %3, align 4
  store i32 1, ptr %8, align 4
  br label %120

96:                                               ; preds = %86
  %97 = load ptr, ptr %6, align 8, !tbaa !9
  %98 = getelementptr inbounds nuw %struct.CVodeMemRec, ptr %97, i32 0, i32 86
  %99 = load ptr, ptr %98, align 8, !tbaa !19
  %100 = call i32 @SUNNonlinSolSetMaxIters(ptr noundef %99, i32 noundef 3)
  store i32 %100, ptr %7, align 4, !tbaa !29
  %101 = load i32, ptr %7, align 4, !tbaa !29
  %102 = icmp ne i32 %101, 0
  br i1 %102, label %103, label %105

103:                                              ; preds = %96
  %104 = load ptr, ptr %6, align 8, !tbaa !9
  call void (ptr, i32, i32, ptr, ptr, ptr, ...) @cvProcessError(ptr noundef %104, i32 noundef -22, i32 noundef 126, ptr noundef @__func__.CVodeSetNonlinearSolver, ptr noundef @.str, ptr noundef @.str.7)
  store i32 -22, ptr %3, align 4
  store i32 1, ptr %8, align 4
  br label %120

105:                                              ; preds = %96
  %106 = load ptr, ptr %6, align 8, !tbaa !9
  %107 = getelementptr inbounds nuw %struct.CVodeMemRec, ptr %106, i32 0, i32 50
  store i32 0, ptr %107, align 8, !tbaa !30
  %108 = load ptr, ptr %6, align 8, !tbaa !9
  %109 = getelementptr inbounds nuw %struct.CVodeMemRec, ptr %108, i32 0, i32 2
  %110 = load ptr, ptr %109, align 8, !tbaa !31
  %111 = icmp ne ptr %110, null
  br i1 %111, label %114, label %112

112:                                              ; preds = %105
  %113 = load ptr, ptr %6, align 8, !tbaa !9
  call void (ptr, i32, i32, ptr, ptr, ptr, ...) @cvProcessError(ptr noundef %113, i32 noundef -22, i32 noundef 137, ptr noundef @__func__.CVodeSetNonlinearSolver, ptr noundef @.str, ptr noundef @.str.8)
  store i32 -22, ptr %3, align 4
  store i32 1, ptr %8, align 4
  br label %120

114:                                              ; preds = %105
  %115 = load ptr, ptr %6, align 8, !tbaa !9
  %116 = getelementptr inbounds nuw %struct.CVodeMemRec, ptr %115, i32 0, i32 2
  %117 = load ptr, ptr %116, align 8, !tbaa !31
  %118 = load ptr, ptr %6, align 8, !tbaa !9
  %119 = getelementptr inbounds nuw %struct.CVodeMemRec, ptr %118, i32 0, i32 88
  store ptr %117, ptr %119, align 8, !tbaa !32
  store i32 0, ptr %3, align 4
  store i32 1, ptr %8, align 4
  br label %120

120:                                              ; preds = %114, %112, %103, %94, %84, %78, %38, %16, %11
  call void @llvm.lifetime.end.p0(i64 4, ptr %7) #3
  call void @llvm.lifetime.end.p0(i64 8, ptr %6) #3
  %121 = load i32, ptr %3, align 4
  ret i32 %121
}