; Function Attrs: nounwind uwtable
define range(i32 -22, 1) i32 @CVodeSetNonlinearSolver(ptr noundef %0, ptr noundef %1) local_unnamed_addr #0 {
  %3 = icmp eq ptr %0, null
  br i1 %3, label %4, label %5

4:                                                ; preds = %2
  tail call void (ptr, i32, i32, ptr, ptr, ptr, ...) @cvProcessError(ptr noundef null, i32 noundef -21, i32 noundef 55, ptr noundef nonnull @__func__.CVodeSetNonlinearSolver, ptr noundef nonnull @.str, ptr noundef nonnull @.str.1) #3
  br label %57

5:                                                ; preds = %2
  %6 = icmp eq ptr %1, null
  br i1 %6, label %7, label %8

7:                                                ; preds = %5
  tail call void (ptr, i32, i32, ptr, ptr, ptr, ...) @cvProcessError(ptr noundef null, i32 noundef -22, i32 noundef 63, ptr noundef nonnull @__func__.CVodeSetNonlinearSolver, ptr noundef nonnull @.str, ptr noundef nonnull @.str.2) #3
  br label %57

8:                                                ; preds = %5
  %9 = getelementptr inbounds nuw i8, ptr %1, i64 8
  %10 = load ptr, ptr %9, align 8, !tbaa !3
  %11 = load ptr, ptr %10, align 8, !tbaa !10
  %12 = icmp eq ptr %11, null
  br i1 %12, label %21, label %13

13:                                               ; preds = %8
  %14 = getelementptr inbounds nuw i8, ptr %10, i64 24
  %15 = load ptr, ptr %14, align 8, !tbaa !12
  %16 = icmp eq ptr %15, null
  br i1 %16, label %21, label %17

17:                                               ; preds = %13
  %18 = getelementptr inbounds nuw i8, ptr %10, i64 40
  %19 = load ptr, ptr %18, align 8, !tbaa !13
  %20 = icmp eq ptr %19, null
  br i1 %20, label %21, label %22

21:                                               ; preds = %17, %13, %8
  tail call void (ptr, i32, i32, ptr, ptr, ptr, ...) @cvProcessError(ptr noundef nonnull %0, i32 noundef -22, i32 noundef 72, ptr noundef nonnull @__func__.CVodeSetNonlinearSolver, ptr noundef nonnull @.str, ptr noundef nonnull @.str.3) #3
  br label %57

22:                                               ; preds = %17
  %23 = getelementptr inbounds nuw i8, ptr %0, i64 976
  %24 = load ptr, ptr %23, align 8, !tbaa !14
  %.not = icmp eq ptr %24, null
  br i1 %.not, label %30, label %25

25:                                               ; preds = %22
  %26 = getelementptr inbounds nuw i8, ptr %0, i64 984
  %27 = load i32, ptr %26, align 8, !tbaa !24
  %.not37 = icmp eq i32 %27, 0
  br i1 %.not37, label %30, label %28

28:                                               ; preds = %25
  %29 = tail call i32 @SUNNonlinSolFree(ptr noundef nonnull %24) #3
  br label %30

30:                                               ; preds = %28, %25, %22
  store ptr %1, ptr %23, align 8, !tbaa !14
  %31 = getelementptr inbounds nuw i8, ptr %0, i64 984
  store i32 0, ptr %31, align 8, !tbaa !24
  %32 = tail call i32 @SUNNonlinSolGetType(ptr noundef nonnull %1) #3
  %33 = icmp eq i32 %32, 0
  br i1 %33, label %38, label %34

34:                                               ; preds = %30
  %35 = tail call i32 @SUNNonlinSolGetType(ptr noundef nonnull %1) #3
  %36 = icmp eq i32 %35, 1
  br i1 %36, label %38, label %37

37:                                               ; preds = %34
  tail call void (ptr, i32, i32, ptr, ptr, ptr, ...) @cvProcessError(ptr noundef nonnull %0, i32 noundef -22, i32 noundef 101, ptr noundef nonnull @__func__.CVodeSetNonlinearSolver, ptr noundef nonnull @.str, ptr noundef nonnull @.str.4) #3
  br label %57

38:                                               ; preds = %34, %30
  %cvNlsFPFunction.sink = phi ptr [ @cvNlsResidual, %30 ], [ @cvNlsFPFunction, %34 ]
  %39 = load ptr, ptr %23, align 8, !tbaa !14
  %40 = tail call i32 @SUNNonlinSolSetSysFn(ptr noundef %39, ptr noundef nonnull %cvNlsFPFunction.sink) #3
  %.not38 = icmp eq i32 %40, 0
  br i1 %.not38, label %42, label %41

41:                                               ; preds = %38
  tail call void (ptr, i32, i32, ptr, ptr, ptr, ...) @cvProcessError(ptr noundef nonnull %0, i32 noundef -22, i32 noundef 108, ptr noundef nonnull @__func__.CVodeSetNonlinearSolver, ptr noundef nonnull @.str, ptr noundef nonnull @.str.5) #3
  br label %57

42:                                               ; preds = %38
  %43 = load ptr, ptr %23, align 8, !tbaa !14
  %44 = tail call i32 @SUNNonlinSolSetConvTestFn(ptr noundef %43, ptr noundef nonnull @cvNlsConvTest, ptr noundef nonnull %0) #3
  %.not39 = icmp eq i32 %44, 0
  br i1 %.not39, label %46, label %45

45:                                               ; preds = %42
  tail call void (ptr, i32, i32, ptr, ptr, ptr, ...) @cvProcessError(ptr noundef nonnull %0, i32 noundef -22, i32 noundef 117, ptr noundef nonnull @__func__.CVodeSetNonlinearSolver, ptr noundef nonnull @.str, ptr noundef nonnull @.str.6) #3
  br label %57

46:                                               ; preds = %42
  %47 = load ptr, ptr %23, align 8, !tbaa !14
  %48 = tail call i32 @SUNNonlinSolSetMaxIters(ptr noundef %47, i32 noundef 3) #3
  %.not40 = icmp eq i32 %48, 0
  br i1 %.not40, label %50, label %49

49:                                               ; preds = %46
  tail call void (ptr, i32, i32, ptr, ptr, ptr, ...) @cvProcessError(ptr noundef nonnull %0, i32 noundef -22, i32 noundef 126, ptr noundef nonnull @__func__.CVodeSetNonlinearSolver, ptr noundef nonnull @.str, ptr noundef nonnull @.str.7) #3
  br label %57

50:                                               ; preds = %46
  %51 = getelementptr inbounds nuw i8, ptr %0, i64 696
  store i32 0, ptr %51, align 8, !tbaa !25
  %52 = getelementptr inbounds nuw i8, ptr %0, i64 16
  %53 = load ptr, ptr %52, align 8, !tbaa !26
  %.not41 = icmp eq ptr %53, null
  br i1 %.not41, label %54, label %55

54:                                               ; preds = %50
  tail call void (ptr, i32, i32, ptr, ptr, ptr, ...) @cvProcessError(ptr noundef nonnull %0, i32 noundef -22, i32 noundef 137, ptr noundef nonnull @__func__.CVodeSetNonlinearSolver, ptr noundef nonnull @.str, ptr noundef nonnull @.str.8) #3
  br label %57

55:                                               ; preds = %50
  %56 = getelementptr inbounds nuw i8, ptr %0, i64 992
  store ptr %53, ptr %56, align 8, !tbaa !27
  br label %57

57:                                               ; preds = %55, %54, %49, %45, %41, %37, %21, %7, %4
  %.032 = phi i32 [ -21, %4 ], [ -22, %7 ], [ -22, %21 ], [ -22, %41 ], [ -22, %45 ], [ -22, %49 ], [ 0, %55 ], [ -22, %54 ], [ -22, %37 ]
  ret i32 %.032
}